target datalayout = "e-m:e-p270:32:32-p271:32:32-p272:64:64-i64:64-i128:128-f80:128-n8:16:32:64-S128"
target triple = "x86_64-pc-linux-gnu"

%class.PhaseTransform = type { ptr, %class.Phase }
%class.Phase = type { i32, ptr }
%class.Node = type <{ ptr, ptr, ptr, i32, i32, i32, i32, i32, i32, i32, [4 x i8] }>
%class.PhaseValues = type { %class.PhaseTransform, i8, ptr, ptr, [137 x ptr], [137 x ptr], [20 x ptr] }
%class.Type_Array = type { ptr, i32, ptr }

@_ZN4Type3TOPE = external global ptr, align 8
@_ZN4Type7CONTROLE = external global ptr, align 8

; Function Attrs: mustprogress nounwind uwtable
define linkonce_odr hidden noundef ptr @_ZNK10Type_Array11fast_lookupEj(ptr noundef nonnull align 8 dereferenceable(24) %0, i32 noundef %1) #1 comdat align 2 {
  %3 = alloca ptr, align 8
  %4 = alloca i32, align 4
  store ptr %0, ptr %3, align 8
  store i32 %1, ptr %4, align 4
  %5 = load ptr, ptr %3, align 8
  %6 = getelementptr inbounds %class.Type_Array, ptr %5, i32 0, i32 2
  %7 = load ptr, ptr %6, align 8
  %8 = load i32, ptr %4, align 4
  %9 = zext i32 %8 to i64
  %10 = getelementptr inbounds ptr, ptr %7, i64 %9
  %11 = load ptr, ptr %10, align 8
  ret ptr %11
}

; Function Attrs: mustprogress nounwind uwtable
define linkonce_odr hidden noundef ptr @_ZNK11PhaseValues4typeEPK4Node(ptr noundef nonnull align 8 dereferenceable(2400) %0, ptr noundef %1) #1 comdat align 2 {
  %3 = alloca ptr, align 8
  %4 = alloca ptr, align 8
  %5 = alloca ptr, align 8
  store ptr %0, ptr %3, align 8
  store ptr %1, ptr %4, align 8
  %6 = load ptr, ptr %3, align 8
  %7 = getelementptr inbounds %class.PhaseValues, ptr %6, i32 0, i32 3
  %8 = load ptr, ptr %7, align 8
  %9 = load ptr, ptr %4, align 8
  %10 = getelementptr inbounds %class.Node, ptr %9, i32 0, i32 7
  %11 = load i32, ptr %10, align 8
  %12 = call noundef ptr @_ZNK10Type_Array11fast_lookupEj(ptr noundef nonnull align 8 dereferenceable(24) %8, i32 noundef %11)
  store ptr %12, ptr %5, align 8
  %13 = load ptr, ptr %5, align 8
  ret ptr %13
}

; Function Attrs: mustprogress nounwind uwtable
define linkonce_odr hidden noundef ptr @_ZNK4Node2inEj(ptr noundef nonnull align 8 dereferenceable(52) %0, i32 noundef %1) #1 comdat align 2 {
  %3 = alloca ptr, align 8
  %4 = alloca i32, align 4
  store ptr %0, ptr %3, align 8
  store i32 %1, ptr %4, align 4
  %5 = load ptr, ptr %3, align 8
  %6 = getelementptr inbounds %class.Node, ptr %5, i32 0, i32 1
  %7 = load ptr, ptr %6, align 8
  %8 = load i32, ptr %4, align 4
  %9 = zext i32 %8 to i64
  %10 = getelementptr inbounds ptr, ptr %7, i64 %9
  %11 = load ptr, ptr %10, align 8
  ret ptr %11
}

; Function Attrs: mustprogress nounwind uwtable
define hidden noundef ptr @_ZNK13SafePointNode5ValueEP8PhaseGVN(ptr noundef nonnull align 8 dereferenceable(81) %0, ptr noundef %1) unnamed_addr #1 align 2 {
  %3 = alloca ptr, align 8
  %4 = alloca ptr, align 8
  %5 = alloca ptr, align 8
  store ptr %0, ptr %4, align 8
  store ptr %1, ptr %5, align 8
  %6 = load ptr, ptr %4, align 8
  %7 = load ptr, ptr %5, align 8
  %8 = call noundef ptr @_ZNK4Node2inEj(ptr noundef nonnull align 8 dereferenceable(52) %6, i32 noundef 0)
  %9 = call noundef ptr @_ZNK11PhaseValues4typeEPK4Node(ptr noundef nonnull align 8 dereferenceable(2400) %7, ptr noundef %8)
  %10 = load ptr, ptr @_ZN4Type3TOPE, align 8
  %11 = icmp eq ptr %9, %10
  br i1 %11, label %12, label %14

12:                                               ; preds = %2
  %13 = load ptr, ptr @_ZN4Type3TOPE, align 8
  store ptr %13, ptr %3, align 8
  br label %21

14:                                               ; preds = %2
  %15 = call noundef ptr @_ZNK4Node2inEj(ptr noundef nonnull align 8 dereferenceable(52) %6, i32 noundef 0)
  %16 = icmp eq ptr %15, %6
  br i1 %16, label %17, label %19

17:                                               ; preds = %14
  %18 = load ptr, ptr @_ZN4Type3TOPE, align 8
  store ptr %18, ptr %3, align 8
  br label %21

19:                                               ; preds = %14
  %20 = load ptr, ptr @_ZN4Type7CONTROLE, align 8
  store ptr %20, ptr %3, align 8
  br label %21

21:                                               ; preds = %19, %17, %12
  %22 = load ptr, ptr %3, align 8
  ret ptr %22
}