; Function Attrs: mustprogress nofree norecurse nosync nounwind willreturn memory(read, inaccessiblemem: none) uwtable
define hidden noundef ptr @_ZNK13SafePointNode5ValueEP8PhaseGVN(ptr noundef nonnull readonly align 8 dereferenceable(81) %0, ptr nocapture noundef readonly %1) unnamed_addr #4 align 2 {
  %3 = getelementptr inbounds i8, ptr %0, i64 8
  %4 = load ptr, ptr %3, align 8
  %5 = load ptr, ptr %4, align 8
  %6 = getelementptr inbounds i8, ptr %1, i64 40
  %7 = load ptr, ptr %6, align 8
  %8 = getelementptr inbounds i8, ptr %5, i64 40
  %9 = load i32, ptr %8, align 8
  %10 = getelementptr inbounds i8, ptr %7, i64 16
  %11 = load ptr, ptr %10, align 8
  %12 = zext i32 %9 to i64
  %13 = getelementptr inbounds ptr, ptr %11, i64 %12
  %14 = load ptr, ptr %13, align 8
  %15 = load ptr, ptr @_ZN4Type3TOPE, align 8
  %16 = icmp eq ptr %14, %15
  %17 = icmp eq ptr %5, %0
  %or.cond = or i1 %17, %16
  %18 = load ptr, ptr @_ZN4Type7CONTROLE, align 8
  %.0 = select i1 %or.cond, ptr %15, ptr %18
  ret ptr %.0
}